target datalayout = "e-m:e-p270:32:32-p271:32:32-p272:64:64-i64:64-i128:128-f80:128-n8:16:32:64-S128"
target triple = "x86_64-pc-linux-gnu"

%struct.FunctionCallInfoBaseData = type { ptr, ptr, ptr, i32, i8, i16, [0 x %struct.NullableDatum] }
%struct.NullableDatum = type { i64, i8 }
%struct.anon = type { i32, [0 x i8] }
%struct.ArrayType = type { i32, i32, i32, i32 }
%struct.ExpandedArrayHeader = type { %struct.ExpandedObjectHeader, i32, i32, ptr, ptr, i32, i16, i8, i8, ptr, ptr, i32, i32, i64, ptr, ptr, ptr }
%struct.ExpandedObjectHeader = type { i32, ptr, ptr, [10 x i8], [10 x i8] }

@.str.11 = private unnamed_addr constant [8 x i8] c"[%d:%d]\00", align 1

; Function Attrs: inlinehint nounwind uwtable
define internal i64 @PointerGetDatum(ptr noundef %0) #2 {
  %2 = alloca ptr, align 8
  store ptr %0, ptr %2, align 8
  %3 = load ptr, ptr %2, align 8
  %4 = ptrtoint ptr %3 to i64
  ret i64 %4
}

; Function Attrs: nounwind uwtable
define dso_local i64 @array_dims(ptr noundef %0) #0 {
  %2 = alloca i64, align 8
  %3 = alloca ptr, align 8
  %4 = alloca ptr, align 8
  %5 = alloca ptr, align 8
  %6 = alloca i32, align 4
  %7 = alloca ptr, align 8
  %8 = alloca ptr, align 8
  %9 = alloca [199 x i8], align 16
  %10 = alloca i32, align 4
  store ptr %0, ptr %3, align 8
  call void @llvm.lifetime.start.p0(i64 8, ptr %4) #11
  %11 = load ptr, ptr %3, align 8
  %12 = getelementptr inbounds nuw %struct.FunctionCallInfoBaseData, ptr %11, i32 0, i32 6
  %13 = getelementptr inbounds [0 x %struct.NullableDatum], ptr %12, i64 0, i64 0
  %14 = getelementptr inbounds nuw %struct.NullableDatum, ptr %13, i32 0, i32 0
  %15 = load i64, ptr %14, align 8
  %16 = call ptr @DatumGetAnyArrayP(i64 noundef %15)
  store ptr %16, ptr %4, align 8
  call void @llvm.lifetime.start.p0(i64 8, ptr %5) #11
  call void @llvm.lifetime.start.p0(i64 4, ptr %6) #11
  call void @llvm.lifetime.start.p0(i64 8, ptr %7) #11
  call void @llvm.lifetime.start.p0(i64 8, ptr %8) #11
  call void @llvm.lifetime.start.p0(i64 199, ptr %9) #11
  %17 = load ptr, ptr %4, align 8
  %18 = getelementptr inbounds nuw %struct.anon, ptr %17, i32 0, i32 0
  %19 = load i32, ptr %18, align 4
  %20 = icmp eq i32 %19, -1
  br i1 %20, label %21, label %25

21:                                               ; preds = %1
  %22 = load ptr, ptr %4, align 8
  %23 = getelementptr inbounds nuw %struct.ExpandedArrayHeader, ptr %22, i32 0, i32 2
  %24 = load i32, ptr %23, align 4
  br label %29

25:                                               ; preds = %1
  %26 = load ptr, ptr %4, align 8
  %27 = getelementptr inbounds nuw %struct.ArrayType, ptr %26, i32 0, i32 1
  %28 = load i32, ptr %27, align 4
  br label %29

29:                                               ; preds = %25, %21
  %30 = phi i32 [ %24, %21 ], [ %28, %25 ]
  %31 = icmp sle i32 %30, 0
  br i1 %31, label %48, label %32

32:                                               ; preds = %29
  %33 = load ptr, ptr %4, align 8
  %34 = getelementptr inbounds nuw %struct.anon, ptr %33, i32 0, i32 0
  %35 = load i32, ptr %34, align 4
  %36 = icmp eq i32 %35, -1
  br i1 %36, label %37, label %41

37:                                               ; preds = %32
  %38 = load ptr, ptr %4, align 8
  %39 = getelementptr inbounds nuw %struct.ExpandedArrayHeader, ptr %38, i32 0, i32 2
  %40 = load i32, ptr %39, align 4
  br label %45

41:                                               ; preds = %32
  %42 = load ptr, ptr %4, align 8
  %43 = getelementptr inbounds nuw %struct.ArrayType, ptr %42, i32 0, i32 1
  %44 = load i32, ptr %43, align 4
  br label %45

45:                                               ; preds = %41, %37
  %46 = phi i32 [ %40, %37 ], [ %44, %41 ]
  %47 = icmp sgt i32 %46, 6
  br i1 %47, label %48, label %54

48:                                               ; preds = %45, %29
  br label %49

49:                                               ; preds = %48
  %50 = load ptr, ptr %3, align 8
  %51 = getelementptr inbounds nuw %struct.FunctionCallInfoBaseData, ptr %50, i32 0, i32 4
  store i8 1, ptr %51, align 4
  store i64 0, ptr %2, align 8
  store i32 1, ptr %10, align 4
  br label %136

52:                                               ; No predecessors!
  br label %53

53:                                               ; preds = %52
  br label %54

54:                                               ; preds = %53, %45
  %55 = load ptr, ptr %4, align 8
  %56 = getelementptr inbounds nuw %struct.anon, ptr %55, i32 0, i32 0
  %57 = load i32, ptr %56, align 4
  %58 = icmp eq i32 %57, -1
  br i1 %58, label %59, label %63

59:                                               ; preds = %54
  %60 = load ptr, ptr %4, align 8
  %61 = getelementptr inbounds nuw %struct.ExpandedArrayHeader, ptr %60, i32 0, i32 3
  %62 = load ptr, ptr %61, align 8
  br label %66

63:                                               ; preds = %54
  %64 = load ptr, ptr %4, align 8
  %65 = getelementptr inbounds nuw i8, ptr %64, i64 16
  br label %66

66:                                               ; preds = %63, %59
  %67 = phi ptr [ %62, %59 ], [ %65, %63 ]
  store ptr %67, ptr %7, align 8
  %68 = load ptr, ptr %4, align 8
  %69 = getelementptr inbounds nuw %struct.anon, ptr %68, i32 0, i32 0
  %70 = load i32, ptr %69, align 4
  %71 = icmp eq i32 %70, -1
  br i1 %71, label %72, label %76

72:                                               ; preds = %66
  %73 = load ptr, ptr %4, align 8
  %74 = getelementptr inbounds nuw %struct.ExpandedArrayHeader, ptr %73, i32 0, i32 4
  %75 = load ptr, ptr %74, align 8
  br label %85

76:                                               ; preds = %66
  %77 = load ptr, ptr %4, align 8
  %78 = getelementptr inbounds nuw i8, ptr %77, i64 16
  %79 = load ptr, ptr %4, align 8
  %80 = getelementptr inbounds nuw %struct.ArrayType, ptr %79, i32 0, i32 1
  %81 = load i32, ptr %80, align 4
  %82 = sext i32 %81 to i64
  %83 = mul i64 4, %82
  %84 = getelementptr inbounds nuw i8, ptr %78, i64 %83
  br label %85

85:                                               ; preds = %76, %72
  %86 = phi ptr [ %75, %72 ], [ %84, %76 ]
  store ptr %86, ptr %8, align 8
  %87 = getelementptr inbounds [199 x i8], ptr %9, i64 0, i64 0
  store ptr %87, ptr %5, align 8
  store i32 0, ptr %6, align 4
  br label %88

88:                                               ; preds = %129, %85
  %89 = load i32, ptr %6, align 4
  %90 = load ptr, ptr %4, align 8
  %91 = getelementptr inbounds nuw %struct.anon, ptr %90, i32 0, i32 0
  %92 = load i32, ptr %91, align 4
  %93 = icmp eq i32 %92, -1
  br i1 %93, label %94, label %98

94:                                               ; preds = %88
  %95 = load ptr, ptr %4, align 8
  %96 = getelementptr inbounds nuw %struct.ExpandedArrayHeader, ptr %95, i32 0, i32 2
  %97 = load i32, ptr %96, align 4
  br label %102

98:                                               ; preds = %88
  %99 = load ptr, ptr %4, align 8
  %100 = getelementptr inbounds nuw %struct.ArrayType, ptr %99, i32 0, i32 1
  %101 = load i32, ptr %100, align 4
  br label %102

102:                                              ; preds = %98, %94
  %103 = phi i32 [ %97, %94 ], [ %101, %98 ]
  %104 = icmp slt i32 %89, %103
  br i1 %104, label %105, label %132

105:                                              ; preds = %102
  %106 = load ptr, ptr %5, align 8
  %107 = load ptr, ptr %8, align 8
  %108 = load i32, ptr %6, align 4
  %109 = sext i32 %108 to i64
  %110 = getelementptr inbounds i32, ptr %107, i64 %109
  %111 = load i32, ptr %110, align 4
  %112 = load ptr, ptr %7, align 8
  %113 = load i32, ptr %6, align 4
  %114 = sext i32 %113 to i64
  %115 = getelementptr inbounds i32, ptr %112, i64 %114
  %116 = load i32, ptr %115, align 4
  %117 = load ptr, ptr %8, align 8
  %118 = load i32, ptr %6, align 4
  %119 = sext i32 %118 to i64
  %120 = getelementptr inbounds i32, ptr %117, i64 %119
  %121 = load i32, ptr %120, align 4
  %122 = add i32 %116, %121
  %123 = sub i32 %122, 1
  %124 = call i32 (ptr, ptr, ...) @pg_sprintf(ptr noundef %106, ptr noundef @.str.11, i32 noundef %111, i32 noundef %123)
  %125 = load ptr, ptr %5, align 8
  %126 = call i64 @strlen(ptr noundef %125) #12
  %127 = load ptr, ptr %5, align 8
  %128 = getelementptr inbounds nuw i8, ptr %127, i64 %126
  store ptr %128, ptr %5, align 8
  br label %129

129:                                              ; preds = %105
  %130 = load i32, ptr %6, align 4
  %131 = add i32 %130, 1
  store i32 %131, ptr %6, align 4
  br label %88, !llvm.loop !29

132:                                              ; preds = %102
  %133 = getelementptr inbounds [199 x i8], ptr %9, i64 0, i64 0
  %134 = call ptr @cstring_to_text(ptr noundef %133)
  %135 = call i64 @PointerGetDatum(ptr noundef %134)
  store i64 %135, ptr %2, align 8
  store i32 1, ptr %10, align 4
  br label %136

136:                                              ; preds = %132, %49
  call void @llvm.lifetime.end.p0(i64 199, ptr %9) #11
  call void @llvm.lifetime.end.p0(i64 8, ptr %8) #11
  call void @llvm.lifetime.end.p0(i64 8, ptr %7) #11
  call void @llvm.lifetime.end.p0(i64 4, ptr %6) #11
  call void @llvm.lifetime.end.p0(i64 8, ptr %5) #11
  call void @llvm.lifetime.end.p0(i64 8, ptr %4) #11
  %137 = load i64, ptr %2, align 8
  ret i64 %137
}