; Function Attrs: nounwind uwtable
define dso_local i64 @array_dims(ptr noundef captures(none) %0) local_unnamed_addr #0 {
  %2 = alloca [199 x i8], align 16
  %3 = getelementptr inbounds nuw i8, ptr %0, i64 32
  %4 = load i64, ptr %3, align 8
  %5 = tail call ptr @DatumGetAnyArrayP(i64 noundef %4) #18
  call void @llvm.lifetime.start.p0(i64 199, ptr nonnull %2) #18
  %6 = load i32, ptr %5, align 4
  %7 = icmp eq i32 %6, -1
  %8 = getelementptr inbounds nuw i8, ptr %5, i64 52
  %9 = getelementptr inbounds nuw i8, ptr %5, i64 4
  %.in = select i1 %7, ptr %8, ptr %9
  %10 = load i32, ptr %.in, align 4
  %11 = add i32 %10, -7
  %or.cond = icmp ult i32 %11, -6
  br i1 %or.cond, label %12, label %14

12:                                               ; preds = %1
  %13 = getelementptr inbounds nuw i8, ptr %0, i64 28
  store i8 1, ptr %13, align 4
  br label %44

14:                                               ; preds = %1
  br i1 %7, label %15, label %20

15:                                               ; preds = %14
  %16 = getelementptr inbounds nuw i8, ptr %5, i64 56
  %17 = load ptr, ptr %16, align 8
  %18 = getelementptr inbounds nuw i8, ptr %5, i64 64
  %19 = load ptr, ptr %18, align 8
  br label %.lr.ph.preheader

20:                                               ; preds = %14
  %21 = getelementptr inbounds nuw i8, ptr %5, i64 16
  %22 = load i32, ptr %9, align 4
  %23 = sext i32 %22 to i64
  %24 = shl nsw i64 %23, 2
  %25 = getelementptr inbounds nuw i8, ptr %21, i64 %24
  br label %.lr.ph.preheader

.lr.ph.preheader:                                 ; preds = %15, %20
  %26 = phi ptr [ %17, %15 ], [ %21, %20 ]
  %27 = phi ptr [ %19, %15 ], [ %25, %20 ]
  br label %.lr.ph

.lr.ph:                                           ; preds = %.lr.ph.preheader, %.lr.ph
  %indvars.iv = phi i64 [ 0, %.lr.ph.preheader ], [ %indvars.iv.next, %.lr.ph ]
  %.02935 = phi ptr [ %2, %.lr.ph.preheader ], [ %36, %.lr.ph ]
  %28 = getelementptr inbounds nuw i32, ptr %27, i64 %indvars.iv
  %29 = load i32, ptr %28, align 4
  %30 = getelementptr inbounds nuw i32, ptr %26, i64 %indvars.iv
  %31 = load i32, ptr %30, align 4
  %32 = add i32 %29, -1
  %33 = add i32 %32, %31
  %34 = call i32 (ptr, ptr, ...) @pg_sprintf(ptr noundef nonnull %.02935, ptr noundef nonnull @.str.11, i32 noundef %29, i32 noundef %33) #18
  %35 = call i64 @strlen(ptr noundef nonnull dereferenceable(1) %.02935) #19
  %36 = getelementptr inbounds nuw i8, ptr %.02935, i64 %35
  %indvars.iv.next = add nuw nsw i64 %indvars.iv, 1
  %37 = load i32, ptr %5, align 4
  %38 = icmp eq i32 %37, -1
  %.in32 = select i1 %38, ptr %8, ptr %9
  %39 = load i32, ptr %.in32, align 4
  %40 = sext i32 %39 to i64
  %41 = icmp slt i64 %indvars.iv.next, %40
  br i1 %41, label %.lr.ph, label %._crit_edge, !llvm.loop !50

._crit_edge:                                      ; preds = %.lr.ph
  %42 = call ptr @cstring_to_text(ptr noundef nonnull %2) #18
  %43 = ptrtoint ptr %42 to i64
  br label %44

44:                                               ; preds = %._crit_edge, %12
  %.0 = phi i64 [ 0, %12 ], [ %43, %._crit_edge ]
  call void @llvm.lifetime.end.p0(i64 199, ptr nonnull %2) #18
  ret i64 %.0
}